; Function Attrs: nounwind uwtable
define dso_local ptr @brin_new_memtuple(ptr noundef readonly captures(none) %0) local_unnamed_addr #0 {
  %2 = getelementptr inbounds nuw i8, ptr %0, i64 16
  %3 = load ptr, ptr %2, align 8
  %4 = load i32, ptr %3, align 8
  %5 = sext i32 %4 to i64
  %6 = mul nsw i64 %5, 40
  %7 = add nsw i64 %6, 47
  %8 = and i64 %7, -8
  %9 = getelementptr inbounds nuw i8, ptr %0, i64 32
  %10 = load i32, ptr %9, align 8
  %11 = sext i32 %10 to i64
  %12 = shl nsw i64 %11, 3
  %13 = add nsw i64 %8, %12
  %14 = tail call ptr @palloc0(i64 noundef %13) #9
  %15 = load i32, ptr %9, align 8
  %16 = sext i32 %15 to i64
  %17 = shl nsw i64 %16, 3
  %18 = tail call ptr @palloc(i64 noundef %17) #9
  %19 = getelementptr inbounds nuw i8, ptr %14, i64 16
  store ptr %18, ptr %19, align 8
  %20 = load ptr, ptr %2, align 8
  %21 = load i32, ptr %20, align 8
  %22 = sext i32 %21 to i64
  %23 = tail call ptr @palloc(i64 noundef %22) #9
  %24 = getelementptr inbounds nuw i8, ptr %14, i64 24
  store ptr %23, ptr %24, align 8
  %25 = load ptr, ptr %2, align 8
  %26 = load i32, ptr %25, align 8
  %27 = sext i32 %26 to i64
  %28 = tail call ptr @palloc(i64 noundef %27) #9
  %29 = getelementptr inbounds nuw i8, ptr %14, i64 32
  store ptr %28, ptr %29, align 8
  %30 = getelementptr inbounds nuw i8, ptr %14, i64 1
  store i8 1, ptr %30, align 1
  %31 = load ptr, ptr @CurrentMemoryContext, align 8
  %32 = tail call ptr @AllocSetContextCreateInternal(ptr noundef %31, ptr noundef nonnull @.str, i64 noundef 0, i64 noundef 8192, i64 noundef 8388608) #9
  %33 = getelementptr inbounds nuw i8, ptr %14, i64 8
  store ptr %32, ptr %33, align 8
  tail call void @MemoryContextReset(ptr noundef %32) #9
  %34 = load ptr, ptr %2, align 8
  %35 = load i32, ptr %34, align 8
  %36 = icmp sgt i32 %35, 0
  br i1 %36, label %.lr.ph.i, label %brin_memtuple_initialize.exit

.lr.ph.i:                                         ; preds = %1
  %37 = zext nneg i32 %35 to i64
  %38 = mul nuw nsw i64 %37, 40
  %39 = add nuw nsw i64 %38, 47
  %40 = and i64 %39, 274877906936
  %41 = getelementptr inbounds nuw i8, ptr %14, i64 %40
  %42 = getelementptr inbounds nuw i8, ptr %14, i64 40
  %43 = load ptr, ptr %33, align 8
  %44 = getelementptr inbounds nuw i8, ptr %0, i64 40
  br label %45

45:                                               ; preds = %45, %.lr.ph.i
  %indvars.iv.i = phi i64 [ 0, %.lr.ph.i ], [ %indvars.iv.next.i, %45 ]
  %.029.i = phi ptr [ %41, %.lr.ph.i ], [ %59, %45 ]
  %indvars.iv.next.i = add nuw nsw i64 %indvars.iv.i, 1
  %46 = trunc i64 %indvars.iv.next.i to i16
  %47 = getelementptr inbounds nuw [0 x %struct.BrinValues], ptr %42, i64 0, i64 %indvars.iv.i
  store i16 %46, ptr %47, align 8
  %48 = getelementptr inbounds nuw i8, ptr %47, i64 3
  store i8 1, ptr %48, align 1
  %49 = getelementptr inbounds nuw i8, ptr %47, i64 2
  store i8 0, ptr %49, align 2
  %50 = getelementptr inbounds nuw i8, ptr %47, i64 8
  store ptr %.029.i, ptr %50, align 8
  %51 = getelementptr inbounds nuw i8, ptr %47, i64 16
  store i64 0, ptr %51, align 8
  %52 = getelementptr inbounds nuw i8, ptr %47, i64 32
  store ptr null, ptr %52, align 8
  %53 = getelementptr inbounds nuw i8, ptr %47, i64 24
  store ptr %43, ptr %53, align 8
  %54 = getelementptr inbounds nuw [0 x ptr], ptr %44, i64 0, i64 %indvars.iv.i
  %55 = load ptr, ptr %54, align 8
  %56 = load i16, ptr %55, align 8
  %57 = zext i16 %56 to i64
  %58 = shl nuw nsw i64 %57, 3
  %59 = getelementptr inbounds nuw i8, ptr %.029.i, i64 %58
  %60 = load ptr, ptr %2, align 8
  %61 = load i32, ptr %60, align 8
  %62 = sext i32 %61 to i64
  %63 = icmp slt i64 %indvars.iv.next.i, %62
  br i1 %63, label %45, label %brin_memtuple_initialize.exit, !llvm.loop !16

brin_memtuple_initialize.exit:                    ; preds = %45, %1
  store i8 1, ptr %30, align 1
  ret ptr %14
}